target datalayout = "e-m:e-p270:32:32-p271:32:32-p272:64:64-i64:64-i128:128-f80:128-n8:16:32:64-S128"
target triple = "x86_64-pc-linux-gnu"

%class.MachNode = type { %class.Node.base, i8, i16, ptr }
%class.Node.base = type <{ ptr, ptr, ptr, i32, i32, i32, i32, i32, i32, i32 }>

; Function Attrs: mustprogress nounwind uwtable
define hidden noundef i32 @_ZNK8MachNode13operand_indexEj(ptr noundef nonnull align 8 dereferenceable(64) %0, i32 noundef %1) #1 align 2 {
  %3 = alloca i32, align 4
  %4 = alloca ptr, align 8
  %5 = alloca i32, align 4
  %6 = alloca i32, align 4
  %7 = alloca i32, align 4
  %8 = alloca i32, align 4
  store ptr %0, ptr %4, align 8
  store i32 %1, ptr %5, align 4
  %9 = load ptr, ptr %4, align 8
  %10 = load i32, ptr %5, align 4
  %11 = icmp ult i32 %10, 1
  br i1 %11, label %12, label %13

12:                                               ; preds = %2
  store i32 -1, ptr %3, align 4
  br label %54

13:                                               ; preds = %2
  %14 = getelementptr inbounds %class.MachNode, ptr %9, i32 0, i32 3
  %15 = load ptr, ptr %14, align 8
  %16 = load i32, ptr %5, align 4
  %17 = zext i32 %16 to i64
  %18 = getelementptr inbounds ptr, ptr %15, i64 %17
  %19 = load ptr, ptr %18, align 8
  %20 = load ptr, ptr %19, align 8
  %21 = getelementptr inbounds ptr, ptr %20, i64 1
  %22 = load ptr, ptr %21, align 8
  %23 = call noundef i32 %22(ptr noundef nonnull align 8 dereferenceable(8) %19)
  %24 = icmp eq i32 %23, 0
  br i1 %24, label %25, label %26

25:                                               ; preds = %13
  store i32 -1, ptr %3, align 4
  br label %54

26:                                               ; preds = %13
  %27 = load ptr, ptr %9, align 8
  %28 = getelementptr inbounds ptr, ptr %27, i64 25
  %29 = load ptr, ptr %28, align 8
  %30 = call noundef i32 %29(ptr noundef nonnull align 8 dereferenceable(64) %9)
  store i32 %30, ptr %6, align 4
  store i32 1, ptr %7, align 4
  br label %31

31:                                               ; preds = %49, %26
  %32 = load i32, ptr %7, align 4
  %33 = load i32, ptr %5, align 4
  %34 = icmp ult i32 %32, %33
  br i1 %34, label %35, label %52

35:                                               ; preds = %31
  %36 = getelementptr inbounds %class.MachNode, ptr %9, i32 0, i32 3
  %37 = load ptr, ptr %36, align 8
  %38 = load i32, ptr %7, align 4
  %39 = zext i32 %38 to i64
  %40 = getelementptr inbounds ptr, ptr %37, i64 %39
  %41 = load ptr, ptr %40, align 8
  %42 = load ptr, ptr %41, align 8
  %43 = getelementptr inbounds ptr, ptr %42, i64 1
  %44 = load ptr, ptr %43, align 8
  %45 = call noundef i32 %44(ptr noundef nonnull align 8 dereferenceable(8) %41)
  store i32 %45, ptr %8, align 4
  %46 = load i32, ptr %8, align 4
  %47 = load i32, ptr %6, align 4
  %48 = add i32 %47, %46
  store i32 %48, ptr %6, align 4
  br label %49

49:                                               ; preds = %35
  %50 = load i32, ptr %7, align 4
  %51 = add i32 %50, 1
  store i32 %51, ptr %7, align 4
  br label %31, !llvm.loop !13

52:                                               ; preds = %31
  %53 = load i32, ptr %6, align 4
  store i32 %53, ptr %3, align 4
  br label %54

54:                                               ; preds = %52, %25, %12
  %55 = load i32, ptr %3, align 4
  ret i32 %55
}