; Function Attrs: mustprogress nounwind uwtable
define hidden noundef i32 @_ZNK8MachNode13operand_indexEj(ptr noundef nonnull align 8 dereferenceable(64) %0, i32 noundef %1) local_unnamed_addr #6 align 2 {
  %3 = icmp eq i32 %1, 0
  br i1 %3, label %.loopexit, label %4

4:                                                ; preds = %2
  %5 = getelementptr inbounds i8, ptr %0, i64 56
  %6 = load ptr, ptr %5, align 8
  %7 = zext i32 %1 to i64
  %8 = getelementptr inbounds ptr, ptr %6, i64 %7
  %9 = load ptr, ptr %8, align 8
  %10 = load ptr, ptr %9, align 8
  %11 = getelementptr inbounds i8, ptr %10, i64 8
  %12 = load ptr, ptr %11, align 8
  %13 = tail call noundef i32 %12(ptr noundef nonnull align 8 dereferenceable(8) %9) #13
  %14 = icmp eq i32 %13, 0
  br i1 %14, label %.loopexit, label %15

15:                                               ; preds = %4
  %16 = load ptr, ptr %0, align 8
  %17 = getelementptr inbounds i8, ptr %16, i64 200
  %18 = load ptr, ptr %17, align 8
  %19 = tail call noundef i32 %18(ptr noundef nonnull align 8 dereferenceable(64) %0) #13
  %.not = icmp eq i32 %1, 1
  br i1 %.not, label %.loopexit, label %.lr.ph

.lr.ph:                                           ; preds = %15, %.lr.ph
  %indvars.iv = phi i64 [ %indvars.iv.next, %.lr.ph ], [ 1, %15 ]
  %.01113 = phi i32 [ %27, %.lr.ph ], [ %19, %15 ]
  %20 = load ptr, ptr %5, align 8
  %21 = getelementptr inbounds ptr, ptr %20, i64 %indvars.iv
  %22 = load ptr, ptr %21, align 8
  %23 = load ptr, ptr %22, align 8
  %24 = getelementptr inbounds i8, ptr %23, i64 8
  %25 = load ptr, ptr %24, align 8
  %26 = tail call noundef i32 %25(ptr noundef nonnull align 8 dereferenceable(8) %22) #13
  %27 = add i32 %26, %.01113
  %indvars.iv.next = add nuw nsw i64 %indvars.iv, 1
  %exitcond.not = icmp eq i64 %indvars.iv.next, %7
  br i1 %exitcond.not, label %.loopexit, label %.lr.ph, !llvm.loop !13

.loopexit:                                        ; preds = %.lr.ph, %15, %4, %2
  %.0 = phi i32 [ -1, %2 ], [ -1, %4 ], [ %19, %15 ], [ %27, %.lr.ph ]
  ret i32 %.0
}